target datalayout = "e-m:e-p270:32:32-p271:32:32-p272:64:64-i64:64-i128:128-f80:128-n8:16:32:64-S128"
target triple = "x86_64-pc-linux-gnu"

@hf_mp4_full_box_ver = internal global i32 0, align 4
@hf_mp4_full_box_flags = internal global i32 0, align 4
@hf_mp4_sidx_reference_id = internal global i32 0, align 4
@hf_mp4_sidx_timescale = internal global i32 0, align 4
@hf_mp4_sidx_earliest_presentation_time_v0 = internal global i32 0, align 4
@hf_mp4_sidx_first_offset_v0 = internal global i32 0, align 4
@hf_mp4_sidx_earliest_presentation_time = internal global i32 0, align 4
@hf_mp4_sidx_first_offset = internal global i32 0, align 4
@hf_mp4_sidx_reserved = internal global i32 0, align 4
@hf_mp4_sidx_entry_cnt = internal global i32 0, align 4
@hf_mp4_sidx_reference_type = internal global i32 0, align 4
@hf_mp4_sidx_reference_size = internal global i32 0, align 4
@hf_mp4_sidx_subsegment_duration = internal global i32 0, align 4
@hf_mp4_sidx_starts_with_sap = internal global i32 0, align 4
@hf_mp4_sidx_sap_type = internal global i32 0, align 4
@hf_mp4_sidx_sap_delta_time = internal global i32 0, align 4
@ett_mp4_full_box_flags = internal global i32 0, align 4
@ett_mp4_entry = internal global i32 0, align 4
@.str.174 = private unnamed_addr constant [10 x i8] c"Entry %u:\00", align 1

; Function Attrs: null_pointer_is_valid sspstrong uwtable
define internal i32 @dissect_mp4_full_box(ptr noundef %0, i32 noundef %1, ptr noundef %2, ptr noundef %3, ptr noundef %4, ptr noundef %5) #0 {
  %7 = alloca ptr, align 8
  %8 = alloca i32, align 4
  %9 = alloca ptr, align 8
  %10 = alloca ptr, align 8
  %11 = alloca ptr, align 8
  %12 = alloca ptr, align 8
  store ptr %0, ptr %7, align 8
  store i32 %1, ptr %8, align 4
  store ptr %2, ptr %9, align 8
  store ptr %3, ptr %10, align 8
  store ptr %4, ptr %11, align 8
  store ptr %5, ptr %12, align 8
  %13 = load ptr, ptr %11, align 8
  %14 = icmp ne ptr %13, null
  br i1 %14, label %15, label %20

15:                                               ; preds = %6
  %16 = load ptr, ptr %7, align 8
  %17 = load i32, ptr %8, align 4
  %18 = call zeroext i8 @tvb_get_uint8(ptr noundef %16, i32 noundef %17)
  %19 = load ptr, ptr %11, align 8
  store i8 %18, ptr %19, align 1
  br label %20

20:                                               ; preds = %15, %6
  %21 = load ptr, ptr %9, align 8
  %22 = load i32, ptr @hf_mp4_full_box_ver, align 4
  %23 = load ptr, ptr %7, align 8
  %24 = load i32, ptr %8, align 4
  %25 = call ptr @proto_tree_add_item(ptr noundef %21, i32 noundef %22, ptr noundef %23, i32 noundef %24, i32 noundef 1, i32 noundef 0)
  %26 = load i32, ptr %8, align 4
  %27 = add i32 %26, 1
  store i32 %27, ptr %8, align 4
  %28 = load ptr, ptr %12, align 8
  %29 = icmp ne ptr %28, null
  br i1 %29, label %30, label %35

30:                                               ; preds = %20
  %31 = load ptr, ptr %7, align 8
  %32 = load i32, ptr %8, align 4
  %33 = call i32 @tvb_get_ntoh24(ptr noundef %31, i32 noundef %32)
  %34 = load ptr, ptr %12, align 8
  store i32 %33, ptr %34, align 4
  br label %35

35:                                               ; preds = %30, %20
  %36 = load ptr, ptr %10, align 8
  %37 = icmp ne ptr %36, null
  br i1 %37, label %38, label %46

38:                                               ; preds = %35
  %39 = load ptr, ptr %9, align 8
  %40 = load ptr, ptr %7, align 8
  %41 = load i32, ptr %8, align 4
  %42 = load i32, ptr @hf_mp4_full_box_flags, align 4
  %43 = load i32, ptr @ett_mp4_full_box_flags, align 4
  %44 = load ptr, ptr %10, align 8
  %45 = call ptr @proto_tree_add_bitmask(ptr noundef %39, ptr noundef %40, i32 noundef %41, i32 noundef %42, i32 noundef %43, ptr noundef %44, i32 noundef 0)
  br label %52

46:                                               ; preds = %35
  %47 = load ptr, ptr %9, align 8
  %48 = load i32, ptr @hf_mp4_full_box_flags, align 4
  %49 = load ptr, ptr %7, align 8
  %50 = load i32, ptr %8, align 4
  %51 = call ptr @proto_tree_add_item(ptr noundef %47, i32 noundef %48, ptr noundef %49, i32 noundef %50, i32 noundef 3, i32 noundef 0)
  br label %52

52:                                               ; preds = %46, %38
  ret i32 4
}

; Function Attrs: null_pointer_is_valid sspstrong uwtable
define internal i32 @dissect_mp4_sidx_body(ptr noundef %0, i32 noundef %1, i32 noundef %2, ptr noundef %3, i32 noundef %4, ptr noundef %5) #0 {
  %7 = alloca ptr, align 8
  %8 = alloca i32, align 4
  %9 = alloca i32, align 4
  %10 = alloca ptr, align 8
  %11 = alloca i32, align 4
  %12 = alloca ptr, align 8
  %13 = alloca i8, align 1
  %14 = alloca i32, align 4
  %15 = alloca i16, align 2
  %16 = alloca i16, align 2
  %17 = alloca ptr, align 8
  %18 = alloca ptr, align 8
  store ptr %0, ptr %7, align 8
  store i32 %1, ptr %8, align 4
  store i32 %2, ptr %9, align 4
  store ptr %3, ptr %10, align 8
  store i32 %4, ptr %11, align 4
  store ptr %5, ptr %12, align 8
  call void @llvm.lifetime.start.p0(i64 1, ptr %13) #7
  call void @llvm.lifetime.start.p0(i64 4, ptr %14) #7
  call void @llvm.lifetime.start.p0(i64 2, ptr %15) #7
  call void @llvm.lifetime.start.p0(i64 2, ptr %16) #7
  %19 = load i32, ptr %8, align 4
  store i32 %19, ptr %14, align 4
  %20 = load ptr, ptr %7, align 8
  %21 = load i32, ptr %8, align 4
  %22 = load ptr, ptr %12, align 8
  %23 = call i32 @dissect_mp4_full_box(ptr noundef %20, i32 noundef %21, ptr noundef %22, ptr noundef null, ptr noundef %13, ptr noundef null)
  %24 = load i32, ptr %8, align 4
  %25 = add i32 %24, %23
  store i32 %25, ptr %8, align 4
  %26 = load ptr, ptr %12, align 8
  %27 = load i32, ptr @hf_mp4_sidx_reference_id, align 4
  %28 = load ptr, ptr %7, align 8
  %29 = load i32, ptr %8, align 4
  %30 = call ptr @proto_tree_add_item(ptr noundef %26, i32 noundef %27, ptr noundef %28, i32 noundef %29, i32 noundef 4, i32 noundef 0)
  %31 = load i32, ptr %8, align 4
  %32 = add i32 %31, 4
  store i32 %32, ptr %8, align 4
  %33 = load ptr, ptr %12, align 8
  %34 = load i32, ptr @hf_mp4_sidx_timescale, align 4
  %35 = load ptr, ptr %7, align 8
  %36 = load i32, ptr %8, align 4
  %37 = call ptr @proto_tree_add_item(ptr noundef %33, i32 noundef %34, ptr noundef %35, i32 noundef %36, i32 noundef 4, i32 noundef 0)
  %38 = load i32, ptr %8, align 4
  %39 = add i32 %38, 4
  store i32 %39, ptr %8, align 4
  %40 = load i8, ptr %13, align 1
  %41 = zext i8 %40 to i32
  %42 = icmp eq i32 %41, 0
  br i1 %42, label %43, label %58

43:                                               ; preds = %6
  %44 = load ptr, ptr %12, align 8
  %45 = load i32, ptr @hf_mp4_sidx_earliest_presentation_time_v0, align 4
  %46 = load ptr, ptr %7, align 8
  %47 = load i32, ptr %8, align 4
  %48 = call ptr @proto_tree_add_item(ptr noundef %44, i32 noundef %45, ptr noundef %46, i32 noundef %47, i32 noundef 4, i32 noundef 0)
  %49 = load i32, ptr %8, align 4
  %50 = add i32 %49, 4
  store i32 %50, ptr %8, align 4
  %51 = load ptr, ptr %12, align 8
  %52 = load i32, ptr @hf_mp4_sidx_first_offset_v0, align 4
  %53 = load ptr, ptr %7, align 8
  %54 = load i32, ptr %8, align 4
  %55 = call ptr @proto_tree_add_item(ptr noundef %51, i32 noundef %52, ptr noundef %53, i32 noundef %54, i32 noundef 4, i32 noundef 0)
  %56 = load i32, ptr %8, align 4
  %57 = add i32 %56, 4
  store i32 %57, ptr %8, align 4
  br label %73

58:                                               ; preds = %6
  %59 = load ptr, ptr %12, align 8
  %60 = load i32, ptr @hf_mp4_sidx_earliest_presentation_time, align 4
  %61 = load ptr, ptr %7, align 8
  %62 = load i32, ptr %8, align 4
  %63 = call ptr @proto_tree_add_item(ptr noundef %59, i32 noundef %60, ptr noundef %61, i32 noundef %62, i32 noundef 8, i32 noundef 0)
  %64 = load i32, ptr %8, align 4
  %65 = add i32 %64, 8
  store i32 %65, ptr %8, align 4
  %66 = load ptr, ptr %12, align 8
  %67 = load i32, ptr @hf_mp4_sidx_first_offset, align 4
  %68 = load ptr, ptr %7, align 8
  %69 = load i32, ptr %8, align 4
  %70 = call ptr @proto_tree_add_item(ptr noundef %66, i32 noundef %67, ptr noundef %68, i32 noundef %69, i32 noundef 8, i32 noundef 0)
  %71 = load i32, ptr %8, align 4
  %72 = add i32 %71, 8
  store i32 %72, ptr %8, align 4
  br label %73

73:                                               ; preds = %58, %43
  %74 = load ptr, ptr %12, align 8
  %75 = load i32, ptr @hf_mp4_sidx_reserved, align 4
  %76 = load ptr, ptr %7, align 8
  %77 = load i32, ptr %8, align 4
  %78 = call ptr @proto_tree_add_item(ptr noundef %74, i32 noundef %75, ptr noundef %76, i32 noundef %77, i32 noundef 2, i32 noundef 0)
  %79 = load i32, ptr %8, align 4
  %80 = add i32 %79, 2
  store i32 %80, ptr %8, align 4
  %81 = load ptr, ptr %7, align 8
  %82 = load i32, ptr %8, align 4
  %83 = call zeroext i16 @tvb_get_uint16(ptr noundef %81, i32 noundef %82, i32 noundef 0)
  store i16 %83, ptr %15, align 2
  %84 = load ptr, ptr %12, align 8
  %85 = load i32, ptr @hf_mp4_sidx_entry_cnt, align 4
  %86 = load ptr, ptr %7, align 8
  %87 = load i32, ptr %8, align 4
  %88 = call ptr @proto_tree_add_item(ptr noundef %84, i32 noundef %85, ptr noundef %86, i32 noundef %87, i32 noundef 2, i32 noundef 0)
  %89 = load i32, ptr %8, align 4
  %90 = add i32 %89, 2
  store i32 %90, ptr %8, align 4
  store i16 1, ptr %16, align 2
  br label %91

91:                                               ; preds = %141, %73
  %92 = load i16, ptr %16, align 2
  %93 = zext i16 %92 to i32
  %94 = load i16, ptr %15, align 2
  %95 = zext i16 %94 to i32
  %96 = icmp sle i32 %93, %95
  br i1 %96, label %97, label %144

97:                                               ; preds = %91
  call void @llvm.lifetime.start.p0(i64 8, ptr %17) #7
  call void @llvm.lifetime.start.p0(i64 8, ptr %18) #7
  %98 = load ptr, ptr %12, align 8
  %99 = load ptr, ptr %7, align 8
  %100 = load i32, ptr %8, align 4
  %101 = load i32, ptr @ett_mp4_entry, align 4
  %102 = load i16, ptr %16, align 2
  %103 = zext i16 %102 to i32
  %104 = call ptr (ptr, ptr, i32, i32, i32, ptr, ptr, ...) @proto_tree_add_subtree_format(ptr noundef %98, ptr noundef %99, i32 noundef %100, i32 noundef 8, i32 noundef %101, ptr noundef %18, ptr noundef @.str.174, i32 noundef %103)
  store ptr %104, ptr %17, align 8
  %105 = load ptr, ptr %17, align 8
  %106 = load i32, ptr @hf_mp4_sidx_reference_type, align 4
  %107 = load ptr, ptr %7, align 8
  %108 = load i32, ptr %8, align 4
  %109 = call ptr @proto_tree_add_item(ptr noundef %105, i32 noundef %106, ptr noundef %107, i32 noundef %108, i32 noundef 4, i32 noundef 0)
  %110 = load ptr, ptr %17, align 8
  %111 = load i32, ptr @hf_mp4_sidx_reference_size, align 4
  %112 = load ptr, ptr %7, align 8
  %113 = load i32, ptr %8, align 4
  %114 = call ptr @proto_tree_add_item(ptr noundef %110, i32 noundef %111, ptr noundef %112, i32 noundef %113, i32 noundef 4, i32 noundef 0)
  %115 = load i32, ptr %8, align 4
  %116 = add i32 %115, 4
  store i32 %116, ptr %8, align 4
  %117 = load ptr, ptr %17, align 8
  %118 = load i32, ptr @hf_mp4_sidx_subsegment_duration, align 4
  %119 = load ptr, ptr %7, align 8
  %120 = load i32, ptr %8, align 4
  %121 = call ptr @proto_tree_add_item(ptr noundef %117, i32 noundef %118, ptr noundef %119, i32 noundef %120, i32 noundef 4, i32 noundef 0)
  %122 = load i32, ptr %8, align 4
  %123 = add i32 %122, 4
  store i32 %123, ptr %8, align 4
  %124 = load ptr, ptr %17, align 8
  %125 = load i32, ptr @hf_mp4_sidx_starts_with_sap, align 4
  %126 = load ptr, ptr %7, align 8
  %127 = load i32, ptr %8, align 4
  %128 = call ptr @proto_tree_add_item(ptr noundef %124, i32 noundef %125, ptr noundef %126, i32 noundef %127, i32 noundef 4, i32 noundef 0)
  %129 = load ptr, ptr %17, align 8
  %130 = load i32, ptr @hf_mp4_sidx_sap_type, align 4
  %131 = load ptr, ptr %7, align 8
  %132 = load i32, ptr %8, align 4
  %133 = call ptr @proto_tree_add_item(ptr noundef %129, i32 noundef %130, ptr noundef %131, i32 noundef %132, i32 noundef 4, i32 noundef 0)
  %134 = load ptr, ptr %17, align 8
  %135 = load i32, ptr @hf_mp4_sidx_sap_delta_time, align 4
  %136 = load ptr, ptr %7, align 8
  %137 = load i32, ptr %8, align 4
  %138 = call ptr @proto_tree_add_item(ptr noundef %134, i32 noundef %135, ptr noundef %136, i32 noundef %137, i32 noundef 4, i32 noundef 0)
  %139 = load i32, ptr %8, align 4
  %140 = add i32 %139, 4
  store i32 %140, ptr %8, align 4
  call void @llvm.lifetime.end.p0(i64 8, ptr %18) #7
  call void @llvm.lifetime.end.p0(i64 8, ptr %17) #7
  br label %141

141:                                              ; preds = %97
  %142 = load i16, ptr %16, align 2
  %143 = add i16 %142, 1
  store i16 %143, ptr %16, align 2
  br label %91, !llvm.loop !18

144:                                              ; preds = %91
  %145 = load i32, ptr %8, align 4
  %146 = load i32, ptr %14, align 4
  %147 = sub i32 %145, %146
  call void @llvm.lifetime.end.p0(i64 2, ptr %16) #7
  call void @llvm.lifetime.end.p0(i64 2, ptr %15) #7
  call void @llvm.lifetime.end.p0(i64 4, ptr %14) #7
  call void @llvm.lifetime.end.p0(i64 1, ptr %13) #7
  ret i32 %147
}