; Function Attrs: null_pointer_is_valid sspstrong uwtable
define internal fastcc void @dissect_mp4_sidx_body(ptr noundef %0, i32 noundef %1, ptr noundef %2) unnamed_addr #0 {
  %4 = alloca ptr, align 8
  %5 = tail call zeroext i8 @tvb_get_uint8(ptr noundef %0, i32 noundef %1)
  %6 = load i32, ptr @hf_mp4_full_box_ver, align 4
  %7 = tail call ptr @proto_tree_add_item(ptr noundef %2, i32 noundef %6, ptr noundef %0, i32 noundef %1, i32 noundef 1, i32 noundef 0)
  %8 = add i32 %1, 1
  %9 = load i32, ptr @hf_mp4_full_box_flags, align 4
  %10 = tail call ptr @proto_tree_add_item(ptr noundef %2, i32 noundef %9, ptr noundef %0, i32 noundef %8, i32 noundef 3, i32 noundef 0)
  %11 = add i32 %1, 4
  %12 = load i32, ptr @hf_mp4_sidx_reference_id, align 4
  %13 = tail call ptr @proto_tree_add_item(ptr noundef %2, i32 noundef %12, ptr noundef %0, i32 noundef %11, i32 noundef 4, i32 noundef 0)
  %14 = add i32 %1, 8
  %15 = load i32, ptr @hf_mp4_sidx_timescale, align 4
  %16 = tail call ptr @proto_tree_add_item(ptr noundef %2, i32 noundef %15, ptr noundef %0, i32 noundef %14, i32 noundef 4, i32 noundef 0)
  %17 = add i32 %1, 12
  %18 = icmp eq i8 %5, 0
  %. = select i1 %18, i32 4, i32 8
  %.14 = select i1 %18, i32 16, i32 20
  %.16 = select i1 %18, i32 20, i32 28
  %hf_mp4_sidx_earliest_presentation_time_v0.val = load i32, ptr @hf_mp4_sidx_earliest_presentation_time_v0, align 4
  %hf_mp4_sidx_earliest_presentation_time.val = load i32, ptr @hf_mp4_sidx_earliest_presentation_time, align 4
  %19 = select i1 %18, i32 %hf_mp4_sidx_earliest_presentation_time_v0.val, i32 %hf_mp4_sidx_earliest_presentation_time.val
  %20 = tail call ptr @proto_tree_add_item(ptr noundef %2, i32 noundef %19, ptr noundef %0, i32 noundef %17, i32 noundef %., i32 noundef 0)
  %21 = add i32 %1, %.14
  %hf_mp4_sidx_first_offset_v0.val = load i32, ptr @hf_mp4_sidx_first_offset_v0, align 4
  %hf_mp4_sidx_first_offset.val = load i32, ptr @hf_mp4_sidx_first_offset, align 4
  %22 = select i1 %18, i32 %hf_mp4_sidx_first_offset_v0.val, i32 %hf_mp4_sidx_first_offset.val
  %23 = tail call ptr @proto_tree_add_item(ptr noundef %2, i32 noundef %22, ptr noundef %0, i32 noundef %21, i32 noundef %., i32 noundef 0)
  %24 = add i32 %1, %.16
  %25 = load i32, ptr @hf_mp4_sidx_reserved, align 4
  %26 = tail call ptr @proto_tree_add_item(ptr noundef %2, i32 noundef %25, ptr noundef %0, i32 noundef %24, i32 noundef 2, i32 noundef 0)
  %27 = add i32 %24, 2
  %28 = tail call zeroext i16 @tvb_get_uint16(ptr noundef %0, i32 noundef %27, i32 noundef 0)
  %29 = load i32, ptr @hf_mp4_sidx_entry_cnt, align 4
  %30 = tail call ptr @proto_tree_add_item(ptr noundef %2, i32 noundef %29, ptr noundef %0, i32 noundef %27, i32 noundef 2, i32 noundef 0)
  %.not2 = icmp eq i16 %28, 0
  br i1 %.not2, label %._crit_edge, label %.lr.ph.preheader

.lr.ph.preheader:                                 ; preds = %3
  %.11 = add i32 %24, 4
  br label %.lr.ph

.lr.ph:                                           ; preds = %.lr.ph.preheader, %.lr.ph
  %.15 = phi i32 [ %.1, %.lr.ph ], [ %.11, %.lr.ph.preheader ]
  %.1.in4 = phi i32 [ %41, %.lr.ph ], [ %24, %.lr.ph.preheader ]
  %.0683 = phi i16 [ %48, %.lr.ph ], [ 1, %.lr.ph.preheader ]
  %31 = zext i16 %.0683 to i32
  call void @llvm.lifetime.start.p0(i64 8, ptr nonnull %4) #5
  %32 = load i32, ptr @ett_mp4_entry, align 4
  %33 = call ptr (ptr, ptr, i32, i32, i32, ptr, ptr, ...) @proto_tree_add_subtree_format(ptr noundef %2, ptr noundef %0, i32 noundef %.15, i32 noundef 8, i32 noundef %32, ptr noundef nonnull %4, ptr noundef nonnull @.str.174, i32 noundef %31)
  %34 = load i32, ptr @hf_mp4_sidx_reference_type, align 4
  %35 = call ptr @proto_tree_add_item(ptr noundef %33, i32 noundef %34, ptr noundef %0, i32 noundef %.15, i32 noundef 4, i32 noundef 0)
  %36 = load i32, ptr @hf_mp4_sidx_reference_size, align 4
  %37 = call ptr @proto_tree_add_item(ptr noundef %33, i32 noundef %36, ptr noundef %0, i32 noundef %.15, i32 noundef 4, i32 noundef 0)
  %38 = add i32 %.1.in4, 8
  %39 = load i32, ptr @hf_mp4_sidx_subsegment_duration, align 4
  %40 = call ptr @proto_tree_add_item(ptr noundef %33, i32 noundef %39, ptr noundef %0, i32 noundef %38, i32 noundef 4, i32 noundef 0)
  %41 = add i32 %.1.in4, 12
  %42 = load i32, ptr @hf_mp4_sidx_starts_with_sap, align 4
  %43 = call ptr @proto_tree_add_item(ptr noundef %33, i32 noundef %42, ptr noundef %0, i32 noundef %41, i32 noundef 4, i32 noundef 0)
  %44 = load i32, ptr @hf_mp4_sidx_sap_type, align 4
  %45 = call ptr @proto_tree_add_item(ptr noundef %33, i32 noundef %44, ptr noundef %0, i32 noundef %41, i32 noundef 4, i32 noundef 0)
  %46 = load i32, ptr @hf_mp4_sidx_sap_delta_time, align 4
  %47 = call ptr @proto_tree_add_item(ptr noundef %33, i32 noundef %46, ptr noundef %0, i32 noundef %41, i32 noundef 4, i32 noundef 0)
  call void @llvm.lifetime.end.p0(i64 8, ptr nonnull %4) #5
  %48 = add i16 %.0683, 1
  %.1 = add i32 %.1.in4, 16
  %.not = icmp ugt i16 %48, %28
  br i1 %.not, label %._crit_edge, label %.lr.ph, !llvm.loop !18

._crit_edge:                                      ; preds = %.lr.ph, %3
  ret void
}